target datalayout = "e-m:e-p270:32:32-p271:32:32-p272:64:64-i64:64-i128:128-f80:128-n8:16:32:64-S128"
target triple = "x86_64-pc-linux-gnu"

%struct.ossl_store_loader_st = type { ptr, ptr, ptr, ptr, ptr, ptr, ptr, ptr, ptr, ptr, ptr, ptr, ptr, i32, ptr, ptr, %struct.CRYPTO_REF_COUNT, ptr, ptr, ptr, ptr, ptr, ptr, ptr, ptr, ptr, ptr }
%struct.CRYPTO_REF_COUNT = type { i32 }

; Function Attrs: nounwind uwtable
define i32 @OSSL_STORE_LOADER_is_a(ptr noundef %0, ptr noundef %1) #0 {
  %3 = alloca i32, align 4
  %4 = alloca ptr, align 8
  %5 = alloca ptr, align 8
  %6 = alloca ptr, align 8
  %7 = alloca ptr, align 8
  store ptr %0, ptr %4, align 8, !tbaa !3
  store ptr %1, ptr %5, align 8, !tbaa !21
  %8 = load ptr, ptr %4, align 8, !tbaa !3
  %9 = getelementptr inbounds nuw %struct.ossl_store_loader_st, ptr %8, i32 0, i32 12
  %10 = load ptr, ptr %9, align 8, !tbaa !10
  %11 = icmp ne ptr %10, null
  br i1 %11, label %12, label %27

12:                                               ; preds = %2
  call void @llvm.lifetime.start.p0(i64 8, ptr %6) #6
  %13 = load ptr, ptr %4, align 8, !tbaa !3
  %14 = getelementptr inbounds nuw %struct.ossl_store_loader_st, ptr %13, i32 0, i32 12
  %15 = load ptr, ptr %14, align 8, !tbaa !10
  %16 = call ptr @ossl_provider_libctx(ptr noundef %15)
  store ptr %16, ptr %6, align 8, !tbaa !19
  call void @llvm.lifetime.start.p0(i64 8, ptr %7) #6
  %17 = load ptr, ptr %6, align 8, !tbaa !19
  %18 = call ptr @ossl_namemap_stored(ptr noundef %17)
  store ptr %18, ptr %7, align 8, !tbaa !29
  %19 = load ptr, ptr %7, align 8, !tbaa !29
  %20 = load ptr, ptr %5, align 8, !tbaa !21
  %21 = call i32 @ossl_namemap_name2num(ptr noundef %19, ptr noundef %20)
  %22 = load ptr, ptr %4, align 8, !tbaa !3
  %23 = getelementptr inbounds nuw %struct.ossl_store_loader_st, ptr %22, i32 0, i32 13
  %24 = load i32, ptr %23, align 8, !tbaa !36
  %25 = icmp eq i32 %21, %24
  %26 = zext i1 %25 to i32
  store i32 %26, ptr %3, align 4
  call void @llvm.lifetime.end.p0(i64 8, ptr %7) #6
  call void @llvm.lifetime.end.p0(i64 8, ptr %6) #6
  br label %28

27:                                               ; preds = %2
  store i32 0, ptr %3, align 4
  br label %28

28:                                               ; preds = %27, %12
  %29 = load i32, ptr %3, align 4
  ret i32 %29
}