; Function Attrs: nounwind uwtable
define range(i32 0, 2) i32 @OSSL_STORE_LOADER_is_a(ptr noundef readonly captures(none) %0, ptr noundef %1) local_unnamed_addr #2 {
  %3 = getelementptr inbounds nuw i8, ptr %0, i64 96
  %4 = load ptr, ptr %3, align 8, !tbaa !3
  %.not = icmp eq ptr %4, null
  br i1 %.not, label %13, label %5

5:                                                ; preds = %2
  %6 = tail call ptr @ossl_provider_libctx(ptr noundef nonnull %4) #6
  %7 = tail call ptr @ossl_namemap_stored(ptr noundef %6) #6
  %8 = tail call i32 @ossl_namemap_name2num(ptr noundef %7, ptr noundef %1) #6
  %9 = getelementptr inbounds nuw i8, ptr %0, i64 104
  %10 = load i32, ptr %9, align 8, !tbaa !25
  %11 = icmp eq i32 %8, %10
  %12 = zext i1 %11 to i32
  br label %13

13:                                               ; preds = %2, %5
  %.0 = phi i32 [ %12, %5 ], [ 0, %2 ]
  ret i32 %.0
}